cnumpy.core.multiarray
_reconstruct
p0
(cnumpy
ndarray
p1
(I0
tp2
S'b'
p3
tp4
Rp5
(I1
(I3
tp6
cnumpy
dtype
p7
(S'S12'
p8
I0
I1
tp9
Rp10
(I3
S'|'
p11
NNNI12
I1
I0
tp12
bI00
S'Daniel ZhangSophia Wang\x00sean xie\x00\x00\x00\x00'
p13
tp14
b.